target datalayout = "e-m:e-p270:32:32-p271:32:32-p272:64:64-i64:64-i128:128-f80:128-n8:16:32:64-S128"
target triple = "x86_64-pc-linux-gnu"

%struct._packet_info = type { ptr, ptr, i32, i32, %struct.nstime_t, %struct.nstime_t, %struct.nstime_t, i8, ptr, ptr, ptr, ptr, %struct._address, %struct._address, %struct._address, %struct._address, %struct._address, %struct._address, i32, ptr, i8, [3 x i8], %struct.anon, i32, i32, i32, i32, ptr, i8, ptr, ptr, i16, i16, i32, i32, i16, i32, i32, ptr, ptr, ptr, i8, i8, i16, i16, i16, i32, i16, i16, ptr, ptr, ptr, ptr, ptr, i32, i32 }
%struct.nstime_t = type { i64, i32 }
%struct._address = type { i32, i32, ptr, ptr }
%struct.anon = type { i8, [3 x i8] }

@hf_zrtp_msg_ping_version = internal global i32 0, align 4
@hf_zrtp_msg_ping_endpointhash = internal global i32 0, align 4
@hf_zrtp_msg_pingack_endpointhash = internal global i32 0, align 4
@hf_zrtp_msg_ping_ssrc = internal global i32 0, align 4
@.str.226 = private unnamed_addr constant [15 x i8] c"PingACK Packet\00", align 1

; Function Attrs: null_pointer_is_valid sspstrong uwtable
define internal void @dissect_PingACK(ptr noundef %0, ptr noundef %1, ptr noundef %2) #0 {
  %4 = alloca ptr, align 8
  %5 = alloca ptr, align 8
  %6 = alloca ptr, align 8
  %7 = alloca i32, align 4
  store ptr %0, ptr %4, align 8
  store ptr %1, ptr %5, align 8
  store ptr %2, ptr %6, align 8
  call void @llvm.lifetime.start.p0(i64 4, ptr %7) #6
  store i32 24, ptr %7, align 4
  %8 = load ptr, ptr %5, align 8
  %9 = getelementptr inbounds nuw %struct._packet_info, ptr %8, i32 0, i32 1
  %10 = load ptr, ptr %9, align 8
  call void @col_set_str(ptr noundef %10, i32 noundef 25, ptr noundef @.str.226)
  %11 = load ptr, ptr %6, align 8
  %12 = load i32, ptr @hf_zrtp_msg_ping_version, align 4
  %13 = load ptr, ptr %4, align 8
  %14 = load i32, ptr %7, align 4
  %15 = call ptr @proto_tree_add_item(ptr noundef %11, i32 noundef %12, ptr noundef %13, i32 noundef %14, i32 noundef 4, i32 noundef 0)
  %16 = load ptr, ptr %6, align 8
  %17 = load i32, ptr @hf_zrtp_msg_pingack_endpointhash, align 4
  %18 = load ptr, ptr %4, align 8
  %19 = load i32, ptr %7, align 4
  %20 = add i32 %19, 4
  %21 = call ptr @proto_tree_add_item(ptr noundef %16, i32 noundef %17, ptr noundef %18, i32 noundef %20, i32 noundef 8, i32 noundef 0)
  %22 = load ptr, ptr %6, align 8
  %23 = load i32, ptr @hf_zrtp_msg_ping_endpointhash, align 4
  %24 = load ptr, ptr %4, align 8
  %25 = load i32, ptr %7, align 4
  %26 = add i32 %25, 12
  %27 = call ptr @proto_tree_add_item(ptr noundef %22, i32 noundef %23, ptr noundef %24, i32 noundef %26, i32 noundef 8, i32 noundef 0)
  %28 = load ptr, ptr %6, align 8
  %29 = load i32, ptr @hf_zrtp_msg_ping_ssrc, align 4
  %30 = load ptr, ptr %4, align 8
  %31 = load i32, ptr %7, align 4
  %32 = add i32 %31, 20
  %33 = call ptr @proto_tree_add_item(ptr noundef %28, i32 noundef %29, ptr noundef %30, i32 noundef %32, i32 noundef 4, i32 noundef 0)
  call void @llvm.lifetime.end.p0(i64 4, ptr %7) #6
  ret void
}