; Function Attrs: null_pointer_is_valid sspstrong uwtable
define internal fastcc void @dissect_PingACK(ptr noundef %0, ptr %.8.val, ptr noundef %1) unnamed_addr #0 {
  tail call void @col_set_str(ptr noundef %.8.val, i32 noundef 25, ptr noundef nonnull @.str.226)
  %3 = load i32, ptr @hf_zrtp_msg_ping_version, align 4
  %4 = tail call ptr @proto_tree_add_item(ptr noundef %1, i32 noundef %3, ptr noundef %0, i32 noundef 24, i32 noundef 4, i32 noundef 0)
  %5 = load i32, ptr @hf_zrtp_msg_pingack_endpointhash, align 4
  %6 = tail call ptr @proto_tree_add_item(ptr noundef %1, i32 noundef %5, ptr noundef %0, i32 noundef 28, i32 noundef 8, i32 noundef 0)
  %7 = load i32, ptr @hf_zrtp_msg_ping_endpointhash, align 4
  %8 = tail call ptr @proto_tree_add_item(ptr noundef %1, i32 noundef %7, ptr noundef %0, i32 noundef 36, i32 noundef 8, i32 noundef 0)
  %9 = load i32, ptr @hf_zrtp_msg_ping_ssrc, align 4
  %10 = tail call ptr @proto_tree_add_item(ptr noundef %1, i32 noundef %9, ptr noundef %0, i32 noundef 44, i32 noundef 4, i32 noundef 0)
  ret void
}